; Function Attrs: mustprogress nofree nounwind memory(readwrite, inaccessiblemem: write) uwtable
define void @_ZN19colvarproxy_volmaps33compute_max_volmaps_applied_forceEv(ptr nocapture noundef nonnull align 8 dereferenceable(120) %0) local_unnamed_addr #11 align 2 {
  %2 = getelementptr inbounds i8, ptr %0, i64 80
  %3 = load ptr, ptr %2, align 8
  %4 = getelementptr inbounds i8, ptr %0, i64 88
  %5 = load ptr, ptr %4, align 8
  %.not10.i = icmp eq ptr %3, %5
  br i1 %.not10.i, label %_Z19compute_norm2_statsIdLi1ELb0EEdRKSt6vectorIT_SaIS1_EEPi.exit, label %.lr.ph.i

.lr.ph.i:                                         ; preds = %1, %.lr.ph.i
  %.012.i = phi double [ %.1.i, %.lr.ph.i ], [ 0.000000e+00, %1 ]
  %.sroa.06.011.i = phi ptr [ %9, %.lr.ph.i ], [ %3, %1 ]
  %6 = load double, ptr %.sroa.06.011.i, align 8
  %7 = fmul double %6, %6
  %8 = fcmp ogt double %7, %.012.i
  %.1.i = select i1 %8, double %7, double %.012.i
  %9 = getelementptr inbounds i8, ptr %.sroa.06.011.i, i64 8
  %.not.i = icmp eq ptr %9, %5
  br i1 %.not.i, label %_Z19compute_norm2_statsIdLi1ELb0EEdRKSt6vectorIT_SaIS1_EEPi.exit, label %.lr.ph.i, !llvm.loop !8

_Z19compute_norm2_statsIdLi1ELb0EEdRKSt6vectorIT_SaIS1_EEPi.exit: ; preds = %.lr.ph.i, %1
  %.0.lcssa.i = phi double [ 0.000000e+00, %1 ], [ %.1.i, %.lr.ph.i ]
  %10 = tail call noundef double @sqrt(double noundef %.0.lcssa.i) #15
  %11 = getelementptr inbounds i8, ptr %0, i64 112
  store double %10, ptr %11, align 8
  ret void
}